; Function Attrs: mustprogress uwtable
define void @_ZN3gmx22SelectionOptionManagerC2EPNS_19SelectionCollectionE(ptr noundef nonnull align 8 dereferenceable(16) %0, ptr noundef %1) unnamed_addr #2 align 2 personality ptr @__gxx_personality_v0 {
  store ptr getelementptr inbounds inrange(-16, 16) ({ [4 x ptr] }, ptr @_ZTVN3gmx22SelectionOptionManagerE, i64 0, i32 0, i64 2), ptr %0, align 8
  %3 = invoke noalias noundef nonnull dereferenceable(56) ptr @_Znwm(i64 noundef 56) #19
          to label %4 unwind label %7

4:                                                ; preds = %2
  invoke void @_ZN3gmx22SelectionOptionManager4ImplC1EPNS_19SelectionCollectionE(ptr noundef nonnull align 8 dereferenceable(56) %3, ptr noundef %1)
          to label %5 unwind label %9

5:                                                ; preds = %4
  %6 = getelementptr inbounds i8, ptr %0, i64 8
  store ptr %3, ptr %6, align 8
  ret void

7:                                                ; preds = %2
  %8 = landingpad { ptr, i32 }
          cleanup
  br label %11

9:                                                ; preds = %4
  %10 = landingpad { ptr, i32 }
          cleanup
  tail call void @_ZdlPv(ptr noundef nonnull %3) #17
  br label %11

11:                                               ; preds = %9, %7
  %.pn = phi { ptr, i32 } [ %10, %9 ], [ %8, %7 ]
  tail call void @_ZN3gmx14IOptionManagerD2Ev(ptr noundef nonnull align 8 dereferenceable(8) %0) #16
  resume { ptr, i32 } %.pn
}